; ModuleID = '57/2198.c'
source_filename = "57/2198.c"
target datalayout = "e-m:e-p270:32:32-p271:32:32-p272:64:64-i64:64-f80:128-n8:16:32:64-S128"
target triple = "x86_64-pc-linux-gnu"

@.str = private unnamed_addr constant [3 x i8] c"%c\00", align 1
@.str.1 = private unnamed_addr constant [3 x i8] c"%d\00", align 1
@.str.2 = private unnamed_addr constant [2 x i8] c"\0A\00", align 1

; Function Attrs: noinline nounwind uwtable
define dso_local void @f(i8* %0, i32 %1) #0 {
  %3 = alloca i8*, align 8
  %4 = alloca i32, align 4
  %5 = alloca i32, align 4
  store i8* %0, i8** %3, align 8
  store i32 %1, i32* %4, align 4
  %6 = load i8*, i8** %3, align 8
  %7 = load i32, i32* %4, align 4
  %8 = sub nsw i32 %7, 3
  %9 = sext i32 %8 to i64
  %10 = getelementptr inbounds i8, i8* %6, i64 %9
  %11 = load i8, i8* %10, align 1
  %12 = sext i8 %11 to i32
  %13 = icmp eq i32 %12, 105
  br i1 %13, label %14, label %50

14:                                               ; preds = %2
  %15 = load i8*, i8** %3, align 8
  %16 = load i32, i32* %4, align 4
  %17 = sub nsw i32 %16, 2
  %18 = sext i32 %17 to i64
  %19 = getelementptr inbounds i8, i8* %15, i64 %18
  %20 = load i8, i8* %19, align 1
  %21 = sext i8 %20 to i32
  %22 = icmp eq i32 %21, 110
  br i1 %22, label %23, label %50

23:                                               ; preds = %14
  %24 = load i8*, i8** %3, align 8
  %25 = load i32, i32* %4, align 4
  %26 = sub nsw i32 %25, 1
  %27 = sext i32 %26 to i64
  %28 = getelementptr inbounds i8, i8* %24, i64 %27
  %29 = load i8, i8* %28, align 1
  %30 = sext i8 %29 to i32
  %31 = icmp eq i32 %30, 103
  br i1 %31, label %32, label %50

32:                                               ; preds = %23
  store i32 0, i32* %5, align 4
  br label %33

33:                                               ; preds = %46, %32
  %34 = load i32, i32* %5, align 4
  %35 = load i32, i32* %4, align 4
  %36 = sub nsw i32 %35, 3
  %37 = icmp slt i32 %34, %36
  br i1 %37, label %38, label %49

38:                                               ; preds = %33
  %39 = load i8*, i8** %3, align 8
  %40 = load i32, i32* %5, align 4
  %41 = sext i32 %40 to i64
  %42 = getelementptr inbounds i8, i8* %39, i64 %41
  %43 = load i8, i8* %42, align 1
  %44 = sext i8 %43 to i32
  %45 = call i32 (i8*, ...) @printf(i8* getelementptr inbounds ([3 x i8], [3 x i8]* @.str, i64 0, i64 0), i32 %44)
  br label %46

46:                                               ; preds = %38
  %47 = load i32, i32* %5, align 4
  %48 = add nsw i32 %47, 1
  store i32 %48, i32* %5, align 4
  br label %33

49:                                               ; preds = %33
  br label %122

50:                                               ; preds = %23, %14, %2
  %51 = load i8*, i8** %3, align 8
  %52 = load i32, i32* %4, align 4
  %53 = sub nsw i32 %52, 1
  %54 = sext i32 %53 to i64
  %55 = getelementptr inbounds i8, i8* %51, i64 %54
  %56 = load i8, i8* %55, align 1
  %57 = sext i8 %56 to i32
  %58 = icmp eq i32 %57, 121
  %59 = zext i1 %58 to i32
  %60 = trunc i32 %59 to i8
  %61 = load i8*, i8** %3, align 8
  %62 = load i32, i32* %4, align 4
  %63 = sub nsw i32 %62, 2
  %64 = sext i32 %63 to i64
  %65 = getelementptr inbounds i8, i8* %61, i64 %64
  store i8 %60, i8* %65, align 1
  %66 = icmp ne i8 %60, 0
  br i1 %66, label %67, label %85

67:                                               ; preds = %50
  store i32 0, i32* %5, align 4
  br label %68

68:                                               ; preds = %81, %67
  %69 = load i32, i32* %5, align 4
  %70 = load i32, i32* %4, align 4
  %71 = sub nsw i32 %70, 2
  %72 = icmp slt i32 %69, %71
  br i1 %72, label %73, label %84

73:                                               ; preds = %68
  %74 = load i8*, i8** %3, align 8
  %75 = load i32, i32* %5, align 4
  %76 = sext i32 %75 to i64
  %77 = getelementptr inbounds i8, i8* %74, i64 %76
  %78 = load i8, i8* %77, align 1
  %79 = sext i8 %78 to i32
  %80 = call i32 (i8*, ...) @printf(i8* getelementptr inbounds ([3 x i8], [3 x i8]* @.str, i64 0, i64 0), i32 %79)
  br label %81

81:                                               ; preds = %73
  %82 = load i32, i32* %5, align 4
  %83 = add nsw i32 %82, 1
  store i32 %83, i32* %5, align 4
  br label %68

84:                                               ; preds = %68
  br label %121

85:                                               ; preds = %50
  %86 = load i8*, i8** %3, align 8
  %87 = load i32, i32* %4, align 4
  %88 = sub nsw i32 %87, 1
  %89 = sext i32 %88 to i64
  %90 = getelementptr inbounds i8, i8* %86, i64 %89
  %91 = load i8, i8* %90, align 1
  %92 = sext i8 %91 to i32
  %93 = icmp eq i32 %92, 114
  %94 = zext i1 %93 to i32
  %95 = trunc i32 %94 to i8
  %96 = load i8*, i8** %3, align 8
  %97 = load i32, i32* %4, align 4
  %98 = sub nsw i32 %97, 2
  %99 = sext i32 %98 to i64
  %100 = getelementptr inbounds i8, i8* %96, i64 %99
  store i8 %95, i8* %100, align 1
  %101 = icmp ne i8 %95, 0
  br i1 %101, label %102, label %120

102:                                              ; preds = %85
  store i32 0, i32* %5, align 4
  br label %103

103:                                              ; preds = %116, %102
  %104 = load i32, i32* %5, align 4
  %105 = load i32, i32* %4, align 4
  %106 = sub nsw i32 %105, 2
  %107 = icmp slt i32 %104, %106
  br i1 %107, label %108, label %119

108:                                              ; preds = %103
  %109 = load i8*, i8** %3, align 8
  %110 = load i32, i32* %5, align 4
  %111 = sext i32 %110 to i64
  %112 = getelementptr inbounds i8, i8* %109, i64 %111
  %113 = load i8, i8* %112, align 1
  %114 = sext i8 %113 to i32
  %115 = call i32 (i8*, ...) @printf(i8* getelementptr inbounds ([3 x i8], [3 x i8]* @.str, i64 0, i64 0), i32 %114)
  br label %116

116:                                              ; preds = %108
  %117 = load i32, i32* %5, align 4
  %118 = add nsw i32 %117, 1
  store i32 %118, i32* %5, align 4
  br label %103

119:                                              ; preds = %103
  br label %120

120:                                              ; preds = %119, %85
  br label %121

121:                                              ; preds = %120, %84
  br label %122

122:                                              ; preds = %121, %49
  ret void
}

declare dso_local i32 @printf(i8*, ...) #1

; Function Attrs: noinline nounwind uwtable
define dso_local void @main() #0 {
  %1 = alloca i32, align 4
  %2 = alloca i32, align 4
  %3 = alloca i32, align 4
  %4 = alloca [50 x [30 x i8]], align 16
  %5 = call i32 (i8*, ...) @__isoc99_scanf(i8* getelementptr inbounds ([3 x i8], [3 x i8]* @.str.1, i64 0, i64 0), i32* %1)
  store i32 0, i32* %3, align 4
  br label %6

6:                                                ; preds = %16, %0
  %7 = load i32, i32* %3, align 4
  %8 = load i32, i32* %1, align 4
  %9 = icmp sle i32 %7, %8
  br i1 %9, label %10, label %19

10:                                               ; preds = %6
  %11 = load i32, i32* %3, align 4
  %12 = sext i32 %11 to i64
  %13 = getelementptr inbounds [50 x [30 x i8]], [50 x [30 x i8]]* %4, i64 0, i64 %12
  %14 = getelementptr inbounds [30 x i8], [30 x i8]* %13, i64 0, i64 0
  %15 = call i32 (i8*, ...) bitcast (i32 (...)* @gets to i32 (i8*, ...)*)(i8* %14)
  br label %16

16:                                               ; preds = %10
  %17 = load i32, i32* %3, align 4
  %18 = add nsw i32 %17, 1
  store i32 %18, i32* %3, align 4
  br label %6

19:                                               ; preds = %6
  store i32 0, i32* %3, align 4
  br label %20

20:                                               ; preds = %37, %19
  %21 = load i32, i32* %3, align 4
  %22 = load i32, i32* %1, align 4
  %23 = icmp sle i32 %21, %22
  br i1 %23, label %24, label %40

24:                                               ; preds = %20
  %25 = load i32, i32* %3, align 4
  %26 = sext i32 %25 to i64
  %27 = getelementptr inbounds [50 x [30 x i8]], [50 x [30 x i8]]* %4, i64 0, i64 %26
  %28 = getelementptr inbounds [30 x i8], [30 x i8]* %27, i64 0, i64 0
  %29 = call i64 @strlen(i8* %28) #3
  %30 = trunc i64 %29 to i32
  store i32 %30, i32* %2, align 4
  %31 = load i32, i32* %3, align 4
  %32 = sext i32 %31 to i64
  %33 = getelementptr inbounds [50 x [30 x i8]], [50 x [30 x i8]]* %4, i64 0, i64 %32
  %34 = getelementptr inbounds [30 x i8], [30 x i8]* %33, i64 0, i64 0
  %35 = load i32, i32* %2, align 4
  call void @f(i8* %34, i32 %35)
  %36 = call i32 (i8*, ...) @printf(i8* getelementptr inbounds ([2 x i8], [2 x i8]* @.str.2, i64 0, i64 0))
  br label %37

37:                                               ; preds = %24
  %38 = load i32, i32* %3, align 4
  %39 = add nsw i32 %38, 1
  store i32 %39, i32* %3, align 4
  br label %20

40:                                               ; preds = %20
  ret void
}

declare dso_local i32 @__isoc99_scanf(i8*, ...) #1

declare dso_local i32 @gets(...) #1

; Function Attrs: nounwind readonly
declare dso_local i64 @strlen(i8*) #2


!llvm.module.flags = !{!0}
!llvm.ident = !{!1}

!0 = !{i32 1, !"wchar_size", i32 4}
!1 = !{!"clang version 10.0.0-4ubuntu1 "}
