; ModuleID = 'source-C-CXX/56/2198.c'
source_filename = "source-C-CXX/56/2198.c"
target datalayout = "e-m:e-p270:32:32-p271:32:32-p272:64:64-i64:64-f80:128-n8:16:32:64-S128"
target triple = "x86_64-pc-linux-gnu"

@.str.1 = private unnamed_addr constant [3 x i8] c"%d\00", align 1

; Function Attrs: nofree nounwind sspstrong uwtable
define dso_local void @f(i8* nocapture %0, i32 %1) local_unnamed_addr #0 {
  %3 = add i32 %1, -3
  %4 = sext i32 %3 to i64
  %5 = getelementptr inbounds i8, i8* %0, i64 %4
  %6 = load i8, i8* %5, align 1, !tbaa !5
  %7 = icmp eq i8 %6, 105
  %8 = add i32 %1, -2
  %9 = sext i32 %8 to i64
  br i1 %7, label %10, label %32

10:                                               ; preds = %2
  %11 = getelementptr inbounds i8, i8* %0, i64 %9
  %12 = load i8, i8* %11, align 1, !tbaa !5
  %13 = icmp eq i8 %12, 110
  br i1 %13, label %14, label %32

14:                                               ; preds = %10
  %15 = add nsw i32 %1, -1
  %16 = sext i32 %15 to i64
  %17 = getelementptr inbounds i8, i8* %0, i64 %16
  %18 = load i8, i8* %17, align 1, !tbaa !5
  %19 = icmp eq i8 %18, 103
  br i1 %19, label %20, label %32

20:                                               ; preds = %14
  %21 = icmp sgt i32 %1, 3
  br i1 %21, label %22, label %67

22:                                               ; preds = %20
  %23 = zext i32 %3 to i64
  br label %24

24:                                               ; preds = %22, %24
  %25 = phi i64 [ 0, %22 ], [ %30, %24 ]
  %26 = getelementptr inbounds i8, i8* %0, i64 %25
  %27 = load i8, i8* %26, align 1, !tbaa !5
  %28 = sext i8 %27 to i32
  %29 = tail call i32 @putchar(i32 %28)
  %30 = add nuw nsw i64 %25, 1
  %31 = icmp eq i64 %30, %23
  br i1 %31, label %67, label %24, !llvm.loop !8

32:                                               ; preds = %2, %14, %10
  %33 = add nsw i32 %1, -1
  %34 = sext i32 %33 to i64
  %35 = getelementptr inbounds i8, i8* %0, i64 %34
  %36 = load i8, i8* %35, align 1, !tbaa !5
  %37 = icmp eq i8 %36, 121
  %38 = zext i1 %37 to i8
  %39 = getelementptr inbounds i8, i8* %0, i64 %9
  store i8 %38, i8* %39, align 1, !tbaa !5
  br i1 %37, label %40, label %52

40:                                               ; preds = %32
  %41 = icmp sgt i32 %1, 2
  br i1 %41, label %42, label %67

42:                                               ; preds = %40
  %43 = zext i32 %8 to i64
  br label %44

44:                                               ; preds = %42, %44
  %45 = phi i64 [ 0, %42 ], [ %50, %44 ]
  %46 = getelementptr inbounds i8, i8* %0, i64 %45
  %47 = load i8, i8* %46, align 1, !tbaa !5
  %48 = sext i8 %47 to i32
  %49 = tail call i32 @putchar(i32 %48)
  %50 = add nuw nsw i64 %45, 1
  %51 = icmp eq i64 %50, %43
  br i1 %51, label %67, label %44, !llvm.loop !10

52:                                               ; preds = %32
  %53 = icmp eq i8 %36, 114
  %54 = zext i1 %53 to i8
  store i8 %54, i8* %39, align 1, !tbaa !5
  %55 = icmp sgt i32 %1, 2
  %56 = select i1 %53, i1 %55, i1 false
  br i1 %56, label %57, label %67

57:                                               ; preds = %52
  %58 = zext i32 %8 to i64
  br label %59

59:                                               ; preds = %57, %59
  %60 = phi i64 [ 0, %57 ], [ %65, %59 ]
  %61 = getelementptr inbounds i8, i8* %0, i64 %60
  %62 = load i8, i8* %61, align 1, !tbaa !5
  %63 = sext i8 %62 to i32
  %64 = tail call i32 @putchar(i32 %63)
  %65 = add nuw nsw i64 %60, 1
  %66 = icmp eq i64 %65, %58
  br i1 %66, label %67, label %59, !llvm.loop !11

67:                                               ; preds = %59, %44, %24, %40, %20, %52
  ret void
}

; Function Attrs: argmemonly mustprogress nofree nosync nounwind willreturn
declare void @llvm.lifetime.start.p0i8(i64 immarg, i8* nocapture) #1

; Function Attrs: argmemonly mustprogress nofree nosync nounwind willreturn
declare void @llvm.lifetime.end.p0i8(i64 immarg, i8* nocapture) #1

; Function Attrs: nounwind sspstrong uwtable
define dso_local void @main() local_unnamed_addr #2 {
  %1 = alloca i32, align 4
  %2 = alloca [50 x [30 x i8]], align 16
  %3 = bitcast i32* %1 to i8*
  call void @llvm.lifetime.start.p0i8(i64 4, i8* nonnull %3) #7
  %4 = getelementptr inbounds [50 x [30 x i8]], [50 x [30 x i8]]* %2, i64 0, i64 0, i64 0
  call void @llvm.lifetime.start.p0i8(i64 1500, i8* nonnull %4) #7
  %5 = call i32 (i8*, ...) @__isoc99_scanf(i8* getelementptr inbounds ([3 x i8], [3 x i8]* @.str.1, i64 0, i64 0), i32* nonnull %1)
  %6 = load i32, i32* %1, align 4, !tbaa !12
  %7 = icmp slt i32 %6, 0
  br i1 %7, label %28, label %10

8:                                                ; preds = %10
  %9 = icmp slt i32 %15, 0
  br i1 %9, label %28, label %18

10:                                               ; preds = %0, %10
  %11 = phi i64 [ %14, %10 ], [ 0, %0 ]
  %12 = getelementptr inbounds [50 x [30 x i8]], [50 x [30 x i8]]* %2, i64 0, i64 %11, i64 0
  %13 = call i32 (i8*, ...) bitcast (i32 (...)* @gets to i32 (i8*, ...)*)(i8* nonnull %12) #7
  %14 = add nuw nsw i64 %11, 1
  %15 = load i32, i32* %1, align 4, !tbaa !12
  %16 = sext i32 %15 to i64
  %17 = icmp slt i64 %11, %16
  br i1 %17, label %10, label %8, !llvm.loop !14

18:                                               ; preds = %8, %18
  %19 = phi i64 [ %24, %18 ], [ 0, %8 ]
  %20 = getelementptr inbounds [50 x [30 x i8]], [50 x [30 x i8]]* %2, i64 0, i64 %19, i64 0
  %21 = call i64 @strlen(i8* noundef nonnull %20) #8
  %22 = trunc i64 %21 to i32
  call void @f(i8* nonnull %20, i32 %22)
  %23 = call i32 @putchar(i32 10)
  %24 = add nuw nsw i64 %19, 1
  %25 = load i32, i32* %1, align 4, !tbaa !12
  %26 = sext i32 %25 to i64
  %27 = icmp slt i64 %19, %26
  br i1 %27, label %18, label %28, !llvm.loop !15

28:                                               ; preds = %18, %0, %8
  call void @llvm.lifetime.end.p0i8(i64 1500, i8* nonnull %4) #7
  call void @llvm.lifetime.end.p0i8(i64 4, i8* nonnull %3) #7
  ret void
}

; Function Attrs: nofree nounwind
declare noundef i32 @__isoc99_scanf(i8* nocapture noundef readonly, ...) local_unnamed_addr #3

declare i32 @gets(...) local_unnamed_addr #4

; Function Attrs: argmemonly mustprogress nofree nounwind readonly willreturn
declare i64 @strlen(i8* nocapture) local_unnamed_addr #5

; Function Attrs: nofree nounwind
declare noundef i32 @putchar(i32 noundef) local_unnamed_addr #6


!llvm.module.flags = !{!0, !1, !2, !3}
!llvm.ident = !{!4}

!0 = !{i32 1, !"wchar_size", i32 4}
!1 = !{i32 7, !"PIC Level", i32 2}
!2 = !{i32 7, !"PIE Level", i32 2}
!3 = !{i32 7, !"uwtable", i32 1}
!4 = !{!"clang version 13.0.0"}
!5 = !{!6, !6, i64 0}
!6 = !{!"omnipotent char", !7, i64 0}
!7 = !{!"Simple C/C++ TBAA"}
!8 = distinct !{!8, !9}
!9 = !{!"llvm.loop.mustprogress"}
!10 = distinct !{!10, !9}
!11 = distinct !{!11, !9}
!12 = !{!13, !13, i64 0}
!13 = !{!"int", !6, i64 0}
!14 = distinct !{!14, !9}
!15 = distinct !{!15, !9}
